target datalayout = "e-m:e-p270:32:32-p271:32:32-p272:64:64-i64:64-i128:128-f80:128-n8:16:32:64-S128"
target triple = "x86_64-pc-linux-gnu"

%struct.Tuplesortstate = type { %struct.TuplesortPublic, i32, i8, i8, i32, i64, i64, i64, i32, i64, i8, i32, ptr, ptr, i32, i32, i8, i8, ptr, ptr, ptr, i64, ptr, i32, ptr, i32, i32, ptr, i32, i32, ptr, ptr, i32, i8, i64, i32, i8, i32, ptr, i32, i64, %struct.PGRUsage }
%struct.TuplesortPublic = type { ptr, ptr, ptr, ptr, ptr, ptr, ptr, ptr, ptr, i8, i32, ptr, ptr, i32, i8, ptr }
%struct.PGRUsage = type { %struct.timeval, %struct.rusage }
%struct.timeval = type { i64, i64 }
%struct.rusage = type { %struct.timeval, %struct.timeval, %union.anon, %union.anon.0, %union.anon.1, %union.anon.2, %union.anon.3, %union.anon.4, %union.anon.5, %union.anon.6, %union.anon.7, %union.anon.8, %union.anon.9, %union.anon.10, %union.anon.11, %union.anon.12 }
%union.anon = type { i64 }
%union.anon.0 = type { i64 }
%union.anon.1 = type { i64 }
%union.anon.2 = type { i64 }
%union.anon.3 = type { i64 }
%union.anon.4 = type { i64 }
%union.anon.5 = type { i64 }
%union.anon.6 = type { i64 }
%union.anon.7 = type { i64 }
%union.anon.8 = type { i64 }
%union.anon.9 = type { i64 }
%union.anon.10 = type { i64 }
%union.anon.11 = type { i64 }
%union.anon.12 = type { i64 }
%struct.SortCoordinateData = type { i8, i32, ptr }
%struct.Sharedsort = type { i8, i32, i32, %struct.SharedFileSet, i32, [0 x %struct.TapeShare] }
%struct.SharedFileSet = type { %struct.FileSet, i8, i32 }
%struct.FileSet = type { i32, i32, i32, [8 x i32] }
%struct.TapeShare = type { i64 }

@trace_sort = dso_local global i8 0, align 1
@.str = private unnamed_addr constant [45 x i8] c"random access disallowed under parallel sort\00", align 1
@.str.1 = private unnamed_addr constant [12 x i8] c"tuplesort.c\00", align 1
@__func__.tuplesort_begin_common = private unnamed_addr constant [23 x i8] c"tuplesort_begin_common\00", align 1
@CurrentMemoryContext = external global ptr, align 8
@.str.2 = private unnamed_addr constant [15 x i8] c"TupleSort main\00", align 1
@.str.3 = private unnamed_addr constant [15 x i8] c"TupleSort sort\00", align 1
@__func__.worker_get_identifier = private unnamed_addr constant [22 x i8] c"worker_get_identifier\00", align 1

; Function Attrs: inlinehint nounwind uwtable
define internal i32 @tas(ptr noundef %0) #4 {
  %2 = alloca ptr, align 8
  %3 = alloca i8, align 1
  store ptr %0, ptr %2, align 8
  call void @llvm.lifetime.start.p0(i64 1, ptr %3) #9
  store i8 1, ptr %3, align 1
  %4 = load i8, ptr %3, align 1
  %5 = load ptr, ptr %2, align 8
  %6 = call i8 asm sideeffect "\09lock\09\09\09\0A\09xchgb\09$0,$1\09\0A", "=q,=*m,0,*m,~{memory},~{cc},~{dirflag},~{fpsr},~{flags}"(ptr elementtype(i8) %5, i8 %4, ptr elementtype(i8) %5) #9, !srcloc !24
  store i8 %6, ptr %3, align 1
  %7 = load i8, ptr %3, align 1
  %8 = zext i8 %7 to i32
  call void @llvm.lifetime.end.p0(i64 1, ptr %3) #9
  ret i32 %8
}

; Function Attrs: nounwind uwtable
define internal i32 @worker_get_identifier(ptr noundef %0) #0 {
  %2 = alloca ptr, align 8
  %3 = alloca ptr, align 8
  %4 = alloca i32, align 4
  store ptr %0, ptr %2, align 8
  call void @llvm.lifetime.start.p0(i64 8, ptr %3) #9
  %5 = load ptr, ptr %2, align 8
  %6 = getelementptr inbounds nuw %struct.Tuplesortstate, ptr %5, i32 0, i32 38
  %7 = load ptr, ptr %6, align 8
  store ptr %7, ptr %3, align 8
  call void @llvm.lifetime.start.p0(i64 4, ptr %4) #9
  %8 = load ptr, ptr %3, align 8
  %9 = getelementptr inbounds nuw %struct.Sharedsort, ptr %8, i32 0, i32 0
  %10 = call i32 @tas(ptr noundef %9)
  %11 = icmp ne i32 %10, 0
  br i1 %11, label %12, label %16

12:                                               ; preds = %1
  %13 = load ptr, ptr %3, align 8
  %14 = getelementptr inbounds nuw %struct.Sharedsort, ptr %13, i32 0, i32 0
  %15 = call i32 @s_lock(ptr noundef %14, ptr noundef @.str.1, i32 noundef 2988, ptr noundef @__func__.worker_get_identifier)
  br label %17

16:                                               ; preds = %1
  br label %17

17:                                               ; preds = %16, %12
  %18 = load ptr, ptr %3, align 8
  %19 = getelementptr inbounds nuw %struct.Sharedsort, ptr %18, i32 0, i32 1
  %20 = load i32, ptr %19, align 4
  %21 = add i32 %20, 1
  store i32 %21, ptr %19, align 4
  store i32 %20, ptr %4, align 4
  br label %22

22:                                               ; preds = %17
  call void asm sideeffect "", "~{memory},~{dirflag},~{fpsr},~{flags}"() #9, !srcloc !6
  %23 = load ptr, ptr %3, align 8
  %24 = getelementptr inbounds nuw %struct.Sharedsort, ptr %23, i32 0, i32 0
  store i8 0, ptr %24, align 8
  br label %25

25:                                               ; preds = %22
  br label %26

26:                                               ; preds = %25
  %27 = load i32, ptr %4, align 4
  call void @llvm.lifetime.end.p0(i64 4, ptr %4) #9
  call void @llvm.lifetime.end.p0(i64 8, ptr %3) #9
  ret i32 %27
}

; Function Attrs: inlinehint nounwind uwtable
define internal ptr @MemoryContextSwitchTo(ptr noundef %0) #4 {
  %2 = alloca ptr, align 8
  %3 = alloca ptr, align 8
  store ptr %0, ptr %2, align 8
  call void @llvm.lifetime.start.p0(i64 8, ptr %3) #9
  %4 = load ptr, ptr @CurrentMemoryContext, align 8
  store ptr %4, ptr %3, align 8
  %5 = load ptr, ptr %2, align 8
  store ptr %5, ptr @CurrentMemoryContext, align 8
  %6 = load ptr, ptr %3, align 8
  call void @llvm.lifetime.end.p0(i64 8, ptr %3) #9
  ret ptr %6
}

; Function Attrs: nounwind uwtable
define dso_local ptr @tuplesort_begin_common(i32 noundef %0, ptr noundef %1, i32 noundef %2) #0 {
  %4 = alloca i32, align 4
  %5 = alloca ptr, align 8
  %6 = alloca i32, align 4
  %7 = alloca ptr, align 8
  %8 = alloca ptr, align 8
  %9 = alloca ptr, align 8
  %10 = alloca ptr, align 8
  %11 = alloca i32, align 4
  %12 = alloca i32, align 4
  store i32 %0, ptr %4, align 4
  store ptr %1, ptr %5, align 8
  store i32 %2, ptr %6, align 4
  call void @llvm.lifetime.start.p0(i64 8, ptr %7) #9
  call void @llvm.lifetime.start.p0(i64 8, ptr %8) #9
  call void @llvm.lifetime.start.p0(i64 8, ptr %9) #9
  call void @llvm.lifetime.start.p0(i64 8, ptr %10) #9
  %13 = load ptr, ptr %5, align 8
  %14 = icmp ne ptr %13, null
  br i1 %14, label %15, label %30

15:                                               ; preds = %3
  %16 = load i32, ptr %6, align 4
  %17 = and i32 %16, 1
  %18 = icmp ne i32 %17, 0
  br i1 %18, label %19, label %30

19:                                               ; preds = %15
  br label %20

20:                                               ; preds = %19
  br i1 true, label %21, label %23

21:                                               ; preds = %20
  %22 = call zeroext i1 @errstart_cold(i32 noundef 21, ptr noundef null) #10
  br i1 %22, label %25, label %27

23:                                               ; preds = %20
  %24 = call zeroext i1 @errstart(i32 noundef 21, ptr noundef null)
  br i1 %24, label %25, label %27

25:                                               ; preds = %23, %21
  %26 = call i32 (ptr, ...) @errmsg_internal(ptr noundef @.str)
  call void @errfinish(ptr noundef @.str.1, i32 noundef 651, ptr noundef @__func__.tuplesort_begin_common)
  br label %27

27:                                               ; preds = %25, %23, %21
  unreachable

28:                                               ; No predecessors!
  br label %29

29:                                               ; preds = %28
  br label %30

30:                                               ; preds = %29, %15, %3
  br label %31

31:                                               ; preds = %30
  br label %32

32:                                               ; preds = %31
  br label %33

33:                                               ; preds = %32
  store i32 1, ptr %11, align 4
  %34 = load ptr, ptr @CurrentMemoryContext, align 8
  %35 = call ptr @AllocSetContextCreateInternal(ptr noundef %34, ptr noundef @.str.2, i64 noundef 0, i64 noundef 8192, i64 noundef 8388608)
  store ptr %35, ptr %8, align 8
  br label %36

36:                                               ; preds = %33
  br label %37

37:                                               ; preds = %36
  br label %38

38:                                               ; preds = %37
  store i32 1, ptr %12, align 4
  %39 = load ptr, ptr %8, align 8
  %40 = call ptr @AllocSetContextCreateInternal(ptr noundef %39, ptr noundef @.str.3, i64 noundef 0, i64 noundef 8192, i64 noundef 8388608)
  store ptr %40, ptr %9, align 8
  %41 = load ptr, ptr %8, align 8
  %42 = call ptr @MemoryContextSwitchTo(ptr noundef %41)
  store ptr %42, ptr %10, align 8
  %43 = call ptr @palloc0(i64 noundef 520)
  store ptr %43, ptr %7, align 8
  %44 = load i8, ptr @trace_sort, align 1, !range !4, !noundef !5
  %45 = trunc i8 %44 to i1
  br i1 %45, label %46, label %49

46:                                               ; preds = %38
  %47 = load ptr, ptr %7, align 8
  %48 = getelementptr inbounds nuw %struct.Tuplesortstate, ptr %47, i32 0, i32 41
  call void @pg_rusage_init(ptr noundef %48)
  br label %49

49:                                               ; preds = %46, %38
  %50 = load i32, ptr %6, align 4
  %51 = load ptr, ptr %7, align 8
  %52 = getelementptr inbounds nuw %struct.Tuplesortstate, ptr %51, i32 0, i32 0
  %53 = getelementptr inbounds nuw %struct.TuplesortPublic, ptr %52, i32 0, i32 13
  store i32 %50, ptr %53, align 8
  %54 = load ptr, ptr %7, align 8
  %55 = getelementptr inbounds nuw %struct.Tuplesortstate, ptr %54, i32 0, i32 0
  %56 = getelementptr inbounds nuw %struct.TuplesortPublic, ptr %55, i32 0, i32 14
  store i8 1, ptr %56, align 4
  %57 = load ptr, ptr %7, align 8
  %58 = getelementptr inbounds nuw %struct.Tuplesortstate, ptr %57, i32 0, i32 40
  store i64 10, ptr %58, align 8
  %59 = load i32, ptr %4, align 4
  %60 = icmp sgt i32 %59, 64
  br i1 %60, label %61, label %63

61:                                               ; preds = %49
  %62 = load i32, ptr %4, align 4
  br label %64

63:                                               ; preds = %49
  br label %64

64:                                               ; preds = %63, %61
  %65 = phi i32 [ %62, %61 ], [ 64, %63 ]
  %66 = sext i32 %65 to i64
  %67 = mul i64 %66, 1024
  %68 = load ptr, ptr %7, align 8
  %69 = getelementptr inbounds nuw %struct.Tuplesortstate, ptr %68, i32 0, i32 7
  store i64 %67, ptr %69, align 8
  %70 = load ptr, ptr %9, align 8
  %71 = load ptr, ptr %7, align 8
  %72 = getelementptr inbounds nuw %struct.Tuplesortstate, ptr %71, i32 0, i32 0
  %73 = getelementptr inbounds nuw %struct.TuplesortPublic, ptr %72, i32 0, i32 7
  store ptr %70, ptr %73, align 8
  %74 = load ptr, ptr %8, align 8
  %75 = load ptr, ptr %7, align 8
  %76 = getelementptr inbounds nuw %struct.Tuplesortstate, ptr %75, i32 0, i32 0
  %77 = getelementptr inbounds nuw %struct.TuplesortPublic, ptr %76, i32 0, i32 6
  store ptr %74, ptr %77, align 8
  %78 = load ptr, ptr %7, align 8
  %79 = getelementptr inbounds nuw %struct.Tuplesortstate, ptr %78, i32 0, i32 15
  store i32 1024, ptr %79, align 4
  %80 = load ptr, ptr %7, align 8
  %81 = getelementptr inbounds nuw %struct.Tuplesortstate, ptr %80, i32 0, i32 13
  store ptr null, ptr %81, align 8
  %82 = load ptr, ptr %7, align 8
  call void @tuplesort_begin_batch(ptr noundef %82)
  %83 = load ptr, ptr %5, align 8
  %84 = icmp ne ptr %83, null
  br i1 %84, label %92, label %85

85:                                               ; preds = %64
  %86 = load ptr, ptr %7, align 8
  %87 = getelementptr inbounds nuw %struct.Tuplesortstate, ptr %86, i32 0, i32 38
  store ptr null, ptr %87, align 8
  %88 = load ptr, ptr %7, align 8
  %89 = getelementptr inbounds nuw %struct.Tuplesortstate, ptr %88, i32 0, i32 37
  store i32 -1, ptr %89, align 8
  %90 = load ptr, ptr %7, align 8
  %91 = getelementptr inbounds nuw %struct.Tuplesortstate, ptr %90, i32 0, i32 39
  store i32 -1, ptr %91, align 8
  br label %123

92:                                               ; preds = %64
  %93 = load ptr, ptr %5, align 8
  %94 = getelementptr inbounds nuw %struct.SortCoordinateData, ptr %93, i32 0, i32 0
  %95 = load i8, ptr %94, align 8, !range !4, !noundef !5
  %96 = trunc i8 %95 to i1
  br i1 %96, label %97, label %109

97:                                               ; preds = %92
  %98 = load ptr, ptr %5, align 8
  %99 = getelementptr inbounds nuw %struct.SortCoordinateData, ptr %98, i32 0, i32 2
  %100 = load ptr, ptr %99, align 8
  %101 = load ptr, ptr %7, align 8
  %102 = getelementptr inbounds nuw %struct.Tuplesortstate, ptr %101, i32 0, i32 38
  store ptr %100, ptr %102, align 8
  %103 = load ptr, ptr %7, align 8
  %104 = call i32 @worker_get_identifier(ptr noundef %103)
  %105 = load ptr, ptr %7, align 8
  %106 = getelementptr inbounds nuw %struct.Tuplesortstate, ptr %105, i32 0, i32 37
  store i32 %104, ptr %106, align 8
  %107 = load ptr, ptr %7, align 8
  %108 = getelementptr inbounds nuw %struct.Tuplesortstate, ptr %107, i32 0, i32 39
  store i32 -1, ptr %108, align 8
  br label %122

109:                                              ; preds = %92
  %110 = load ptr, ptr %5, align 8
  %111 = getelementptr inbounds nuw %struct.SortCoordinateData, ptr %110, i32 0, i32 2
  %112 = load ptr, ptr %111, align 8
  %113 = load ptr, ptr %7, align 8
  %114 = getelementptr inbounds nuw %struct.Tuplesortstate, ptr %113, i32 0, i32 38
  store ptr %112, ptr %114, align 8
  %115 = load ptr, ptr %7, align 8
  %116 = getelementptr inbounds nuw %struct.Tuplesortstate, ptr %115, i32 0, i32 37
  store i32 -1, ptr %116, align 8
  %117 = load ptr, ptr %5, align 8
  %118 = getelementptr inbounds nuw %struct.SortCoordinateData, ptr %117, i32 0, i32 1
  %119 = load i32, ptr %118, align 4
  %120 = load ptr, ptr %7, align 8
  %121 = getelementptr inbounds nuw %struct.Tuplesortstate, ptr %120, i32 0, i32 39
  store i32 %119, ptr %121, align 8
  br label %122

122:                                              ; preds = %109, %97
  br label %123

123:                                              ; preds = %122, %85
  %124 = load ptr, ptr %10, align 8
  %125 = call ptr @MemoryContextSwitchTo(ptr noundef %124)
  %126 = load ptr, ptr %7, align 8
  call void @llvm.lifetime.end.p0(i64 8, ptr %10) #9
  call void @llvm.lifetime.end.p0(i64 8, ptr %9) #9
  call void @llvm.lifetime.end.p0(i64 8, ptr %8) #9
  call void @llvm.lifetime.end.p0(i64 8, ptr %7) #9
  ret ptr %126
}