; Function Attrs: nounwind uwtable
define dso_local ptr @tuplesort_begin_common(i32 noundef %0, ptr noundef readonly captures(address_is_null) %1, i32 noundef %2) local_unnamed_addr #0 {
  %.not = icmp eq ptr %1, null
  %4 = and i32 %2, 1
  %.not35 = icmp eq i32 %4, 0
  %or.cond = or i1 %.not, %.not35
  br i1 %or.cond, label %8, label %5

5:                                                ; preds = %3
  %6 = tail call zeroext i1 @errstart_cold(i32 noundef 21, ptr noundef null) #12
  tail call void @llvm.assume(i1 %6)
  %7 = tail call i32 (ptr, ...) @errmsg_internal(ptr noundef nonnull @.str) #13
  tail call void @errfinish(ptr noundef nonnull @.str.1, i32 noundef 651, ptr noundef nonnull @__func__.tuplesort_begin_common) #13
  unreachable

8:                                                ; preds = %3
  %9 = load ptr, ptr @CurrentMemoryContext, align 8
  %10 = tail call ptr @AllocSetContextCreateInternal(ptr noundef %9, ptr noundef nonnull @.str.2, i64 noundef 0, i64 noundef 8192, i64 noundef 8388608) #13
  %11 = tail call ptr @AllocSetContextCreateInternal(ptr noundef %10, ptr noundef nonnull @.str.3, i64 noundef 0, i64 noundef 8192, i64 noundef 8388608) #13
  %12 = load ptr, ptr @CurrentMemoryContext, align 8
  store ptr %10, ptr @CurrentMemoryContext, align 8
  %13 = tail call ptr @palloc0(i64 noundef 520) #13
  %14 = load i8, ptr @trace_sort, align 1, !range !4, !noundef !5
  %15 = trunc nuw i8 %14 to i1
  br i1 %15, label %16, label %18

16:                                               ; preds = %8
  %17 = getelementptr inbounds nuw i8, ptr %13, i64 360
  tail call void @pg_rusage_init(ptr noundef nonnull %17) #13
  br label %18

18:                                               ; preds = %16, %8
  %19 = getelementptr inbounds nuw i8, ptr %13, i64 96
  store i32 %2, ptr %19, align 8
  %20 = getelementptr inbounds nuw i8, ptr %13, i64 100
  store i8 1, ptr %20, align 4
  %21 = getelementptr inbounds nuw i8, ptr %13, i64 352
  store i64 10, ptr %21, align 8
  %22 = tail call i32 @llvm.smax.i32(i32 %0, i32 64)
  %23 = zext nneg i32 %22 to i64
  %24 = shl nuw nsw i64 %23, 10
  %25 = getelementptr inbounds nuw i8, ptr %13, i64 144
  store i64 %24, ptr %25, align 8
  %26 = getelementptr inbounds nuw i8, ptr %13, i64 56
  store ptr %11, ptr %26, align 8
  %27 = getelementptr inbounds nuw i8, ptr %13, i64 48
  store ptr %10, ptr %27, align 8
  %28 = getelementptr inbounds nuw i8, ptr %13, i64 196
  store i32 1024, ptr %28, align 4
  %29 = getelementptr inbounds nuw i8, ptr %13, i64 184
  store ptr null, ptr %29, align 8
  tail call fastcc void @tuplesort_begin_batch(ptr noundef %13)
  br i1 %.not, label %30, label %33

30:                                               ; preds = %18
  %31 = getelementptr inbounds nuw i8, ptr %13, i64 336
  store ptr null, ptr %31, align 8
  %32 = getelementptr inbounds nuw i8, ptr %13, i64 328
  store i32 -1, ptr %32, align 8
  br label %51

33:                                               ; preds = %18
  %34 = load i8, ptr %1, align 8, !range !4, !noundef !5
  %35 = trunc nuw i8 %34 to i1
  %36 = getelementptr inbounds nuw i8, ptr %1, i64 8
  %37 = load ptr, ptr %36, align 8
  %38 = getelementptr inbounds nuw i8, ptr %13, i64 336
  store ptr %37, ptr %38, align 8
  br i1 %35, label %39, label %47

39:                                               ; preds = %33
  %40 = tail call i8 asm sideeffect "\09lock\09\09\09\0A\09xchgb\09$0,$1\09\0A", "=q,=*m,0,*m,~{memory},~{cc},~{dirflag},~{fpsr},~{flags}"(ptr elementtype(i8) %37, i8 1, ptr elementtype(i8) %37) #13, !srcloc !6
  %.not.i = icmp eq i8 %40, 0
  br i1 %.not.i, label %worker_get_identifier.exit, label %41

41:                                               ; preds = %39
  %42 = tail call i32 @s_lock(ptr noundef %37, ptr noundef nonnull @.str.1, i32 noundef 2988, ptr noundef nonnull @__func__.worker_get_identifier) #13
  br label %worker_get_identifier.exit

worker_get_identifier.exit:                       ; preds = %39, %41
  %43 = getelementptr inbounds nuw i8, ptr %37, i64 4
  %44 = load i32, ptr %43, align 4
  %45 = add i32 %44, 1
  store i32 %45, ptr %43, align 4
  tail call void asm sideeffect "", "~{memory},~{dirflag},~{fpsr},~{flags}"() #13, !srcloc !7
  store i8 0, ptr %37, align 8
  %46 = getelementptr inbounds nuw i8, ptr %13, i64 328
  store i32 %44, ptr %46, align 8
  br label %51

47:                                               ; preds = %33
  %48 = getelementptr inbounds nuw i8, ptr %13, i64 328
  store i32 -1, ptr %48, align 8
  %49 = getelementptr inbounds nuw i8, ptr %1, i64 4
  %50 = load i32, ptr %49, align 4
  br label %51

51:                                               ; preds = %worker_get_identifier.exit, %47, %30
  %.sink = phi i32 [ -1, %worker_get_identifier.exit ], [ %50, %47 ], [ -1, %30 ]
  %52 = getelementptr inbounds nuw i8, ptr %13, i64 344
  store i32 %.sink, ptr %52, align 8
  store ptr %12, ptr @CurrentMemoryContext, align 8
  ret ptr %13
}